; Function Attrs: nounwind uwtable
define dso_local ptr @merge_remote_util(ptr noundef readonly captures(none) %0) local_unnamed_addr #0 {
  %2 = getelementptr i8, ptr %0, i64 64
  %.val = load i32, ptr %2, align 8, !tbaa !77
  %3 = udiv i32 %.val, 65532
  %4 = urem i32 %.val, 65532
  %5 = load i32, ptr @merge_desc_slab.2, align 8, !tbaa !162
  %.not.i.i = icmp ugt i32 %5, %3
  %.pre.i.i = load ptr, ptr @merge_desc_slab.3, align 8, !tbaa !165
  br i1 %.not.i.i, label %14, label %st_mult.exit.i.i

st_mult.exit.i.i:                                 ; preds = %1
  %6 = add nuw nsw i32 %3, 1
  %7 = shl nuw nsw i32 %6, 3
  %8 = zext nneg i32 %7 to i64
  %9 = tail call ptr @xrealloc(ptr noundef %.pre.i.i, i64 noundef %8) #24
  store ptr %9, ptr @merge_desc_slab.3, align 8, !tbaa !165
  %10 = load i32, ptr @merge_desc_slab.2, align 8, !tbaa !162
  %.not332.i.i = icmp ugt i32 %10, %3
  br i1 %.not332.i.i, label %._crit_edge.i.i, label %.lr.ph.i.i

.lr.ph.i.i:                                       ; preds = %st_mult.exit.i.i, %.lr.ph.i.i
  %.0303.i.i = phi i32 [ %13, %.lr.ph.i.i ], [ %10, %st_mult.exit.i.i ]
  %11 = zext i32 %.0303.i.i to i64
  %12 = getelementptr inbounds nuw ptr, ptr %9, i64 %11
  store ptr null, ptr %12, align 8, !tbaa !166
  %13 = add i32 %.0303.i.i, 1
  %.not33.i.i = icmp ugt i32 %13, %3
  br i1 %.not33.i.i, label %._crit_edge.i.i, label %.lr.ph.i.i, !llvm.loop !168

._crit_edge.i.i:                                  ; preds = %.lr.ph.i.i, %st_mult.exit.i.i
  store i32 %6, ptr @merge_desc_slab.2, align 8, !tbaa !162
  br label %14

14:                                               ; preds = %._crit_edge.i.i, %1
  %15 = phi ptr [ %9, %._crit_edge.i.i ], [ %.pre.i.i, %1 ]
  %16 = zext nneg i32 %3 to i64
  %17 = getelementptr inbounds nuw ptr, ptr %15, i64 %16
  %18 = load ptr, ptr %17, align 8, !tbaa !166
  %.not34.i.i = icmp eq ptr %18, null
  br i1 %.not34.i.i, label %19, label %merge_desc_slab_at.exit

19:                                               ; preds = %14
  %20 = tail call ptr @xcalloc(i64 noundef 65532, i64 noundef 8) #24
  %21 = load ptr, ptr @merge_desc_slab.3, align 8, !tbaa !165
  %22 = getelementptr inbounds nuw ptr, ptr %21, i64 %16
  store ptr %20, ptr %22, align 8, !tbaa !166
  br label %merge_desc_slab_at.exit

merge_desc_slab_at.exit:                          ; preds = %14, %19
  %23 = phi ptr [ %18, %14 ], [ %20, %19 ]
  %24 = zext nneg i32 %4 to i64
  %25 = getelementptr inbounds nuw ptr, ptr %23, i64 %24
  %26 = load ptr, ptr %25, align 8, !tbaa !169
  ret ptr %26
}